target datalayout = "e-m:e-p270:32:32-p271:32:32-p272:64:64-i64:64-i128:128-f80:128-n8:16:32:64-S128"
target triple = "x86_64-pc-linux-gnu"

%struct.OnigCaptureTreeNodeStruct = type { i32, i32, i32, i32, i32, ptr }
%struct.re_pattern_buffer = type { ptr, ptr, ptr, i32, i32, ptr, ptr, i32, i32, i32, i32, i32, i32, i32, i32, i32, ptr, ptr, i32, ptr, i32, ptr, i32, i32, i32, i32, i32, i32, ptr, ptr, [256 x i8], i32, i32, i32, ptr }
%struct._StackType = type { i32, i32, %union.anon.3 }
%union.anon.3 = type { %struct.anon.6 }
%struct.anon.6 = type { ptr, %union.StkPtrType, %union.StkPtrType }
%union.StkPtrType = type { i64 }

; Function Attrs: nounwind uwtable
define internal i32 @history_tree_add_child(ptr noundef %0, ptr noundef %1) #0 {
  %3 = alloca i32, align 4
  %4 = alloca ptr, align 8
  %5 = alloca ptr, align 8
  %6 = alloca i32, align 4
  %7 = alloca i32, align 4
  %8 = alloca i32, align 4
  store ptr %0, ptr %4, align 8, !tbaa !34
  store ptr %1, ptr %5, align 8, !tbaa !34
  %9 = load ptr, ptr %4, align 8, !tbaa !34
  %10 = getelementptr inbounds nuw %struct.OnigCaptureTreeNodeStruct, ptr %9, i32 0, i32 4
  %11 = load i32, ptr %10, align 8, !tbaa !39
  %12 = load ptr, ptr %4, align 8, !tbaa !34
  %13 = getelementptr inbounds nuw %struct.OnigCaptureTreeNodeStruct, ptr %12, i32 0, i32 3
  %14 = load i32, ptr %13, align 4, !tbaa !219
  %15 = icmp sge i32 %11, %14
  br i1 %15, label %16, label %73

16:                                               ; preds = %2
  call void @llvm.lifetime.start.p0(i64 4, ptr %6) #9
  call void @llvm.lifetime.start.p0(i64 4, ptr %7) #9
  %17 = load ptr, ptr %4, align 8, !tbaa !34
  %18 = getelementptr inbounds nuw %struct.OnigCaptureTreeNodeStruct, ptr %17, i32 0, i32 5
  %19 = load ptr, ptr %18, align 8, !tbaa !40
  %20 = icmp eq ptr %19, null
  br i1 %20, label %21, label %28

21:                                               ; preds = %16
  store i32 8, ptr %6, align 4, !tbaa !9
  %22 = load i32, ptr %6, align 4, !tbaa !9
  %23 = sext i32 %22 to i64
  %24 = mul i64 8, %23
  %25 = call noalias ptr @malloc(i64 noundef %24) #10
  %26 = load ptr, ptr %4, align 8, !tbaa !34
  %27 = getelementptr inbounds nuw %struct.OnigCaptureTreeNodeStruct, ptr %26, i32 0, i32 5
  store ptr %25, ptr %27, align 8, !tbaa !40
  br label %42

28:                                               ; preds = %16
  %29 = load ptr, ptr %4, align 8, !tbaa !34
  %30 = getelementptr inbounds nuw %struct.OnigCaptureTreeNodeStruct, ptr %29, i32 0, i32 3
  %31 = load i32, ptr %30, align 4, !tbaa !219
  %32 = mul nsw i32 %31, 2
  store i32 %32, ptr %6, align 4, !tbaa !9
  %33 = load ptr, ptr %4, align 8, !tbaa !34
  %34 = getelementptr inbounds nuw %struct.OnigCaptureTreeNodeStruct, ptr %33, i32 0, i32 5
  %35 = load ptr, ptr %34, align 8, !tbaa !40
  %36 = load i32, ptr %6, align 4, !tbaa !9
  %37 = sext i32 %36 to i64
  %38 = mul i64 8, %37
  %39 = call ptr @realloc(ptr noundef %35, i64 noundef %38) #11
  %40 = load ptr, ptr %4, align 8, !tbaa !34
  %41 = getelementptr inbounds nuw %struct.OnigCaptureTreeNodeStruct, ptr %40, i32 0, i32 5
  store ptr %39, ptr %41, align 8, !tbaa !40
  br label %42

42:                                               ; preds = %28, %21
  %43 = load ptr, ptr %4, align 8, !tbaa !34
  %44 = getelementptr inbounds nuw %struct.OnigCaptureTreeNodeStruct, ptr %43, i32 0, i32 5
  %45 = load ptr, ptr %44, align 8, !tbaa !40
  %46 = icmp eq ptr %45, null
  br i1 %46, label %47, label %48

47:                                               ; preds = %42
  store i32 -5, ptr %3, align 4
  store i32 1, ptr %8, align 4
  br label %70

48:                                               ; preds = %42
  %49 = load ptr, ptr %4, align 8, !tbaa !34
  %50 = getelementptr inbounds nuw %struct.OnigCaptureTreeNodeStruct, ptr %49, i32 0, i32 3
  %51 = load i32, ptr %50, align 4, !tbaa !219
  store i32 %51, ptr %7, align 4, !tbaa !9
  br label %52

52:                                               ; preds = %63, %48
  %53 = load i32, ptr %7, align 4, !tbaa !9
  %54 = load i32, ptr %6, align 4, !tbaa !9
  %55 = icmp slt i32 %53, %54
  br i1 %55, label %56, label %66

56:                                               ; preds = %52
  %57 = load ptr, ptr %4, align 8, !tbaa !34
  %58 = getelementptr inbounds nuw %struct.OnigCaptureTreeNodeStruct, ptr %57, i32 0, i32 5
  %59 = load ptr, ptr %58, align 8, !tbaa !40
  %60 = load i32, ptr %7, align 4, !tbaa !9
  %61 = sext i32 %60 to i64
  %62 = getelementptr inbounds ptr, ptr %59, i64 %61
  store ptr null, ptr %62, align 8, !tbaa !34
  br label %63

63:                                               ; preds = %56
  %64 = load i32, ptr %7, align 4, !tbaa !9
  %65 = add nsw i32 %64, 1
  store i32 %65, ptr %7, align 4, !tbaa !9
  br label %52, !llvm.loop !221

66:                                               ; preds = %52
  %67 = load i32, ptr %6, align 4, !tbaa !9
  %68 = load ptr, ptr %4, align 8, !tbaa !34
  %69 = getelementptr inbounds nuw %struct.OnigCaptureTreeNodeStruct, ptr %68, i32 0, i32 3
  store i32 %67, ptr %69, align 4, !tbaa !219
  store i32 0, ptr %8, align 4
  br label %70

70:                                               ; preds = %66, %47
  call void @llvm.lifetime.end.p0(i64 4, ptr %7) #9
  call void @llvm.lifetime.end.p0(i64 4, ptr %6) #9
  %71 = load i32, ptr %8, align 4
  switch i32 %71, label %89 [
    i32 0, label %72
    i32 1, label %87
  ]

72:                                               ; preds = %70
  br label %73

73:                                               ; preds = %72, %2
  %74 = load ptr, ptr %5, align 8, !tbaa !34
  %75 = load ptr, ptr %4, align 8, !tbaa !34
  %76 = getelementptr inbounds nuw %struct.OnigCaptureTreeNodeStruct, ptr %75, i32 0, i32 5
  %77 = load ptr, ptr %76, align 8, !tbaa !40
  %78 = load ptr, ptr %4, align 8, !tbaa !34
  %79 = getelementptr inbounds nuw %struct.OnigCaptureTreeNodeStruct, ptr %78, i32 0, i32 4
  %80 = load i32, ptr %79, align 8, !tbaa !39
  %81 = sext i32 %80 to i64
  %82 = getelementptr inbounds ptr, ptr %77, i64 %81
  store ptr %74, ptr %82, align 8, !tbaa !34
  %83 = load ptr, ptr %4, align 8, !tbaa !34
  %84 = getelementptr inbounds nuw %struct.OnigCaptureTreeNodeStruct, ptr %83, i32 0, i32 4
  %85 = load i32, ptr %84, align 8, !tbaa !39
  %86 = add nsw i32 %85, 1
  store i32 %86, ptr %84, align 8, !tbaa !39
  store i32 0, ptr %3, align 4
  br label %87

87:                                               ; preds = %73, %70
  %88 = load i32, ptr %3, align 4
  ret i32 %88

89:                                               ; preds = %70
  unreachable
}

; Function Attrs: nounwind uwtable
define internal ptr @history_node_new() #0 {
  %1 = alloca ptr, align 8
  %2 = alloca ptr, align 8
  %3 = alloca i32, align 4
  call void @llvm.lifetime.start.p0(i64 8, ptr %2) #9
  %4 = call noalias ptr @malloc(i64 noundef 32) #10
  store ptr %4, ptr %2, align 8, !tbaa !34
  %5 = load ptr, ptr %2, align 8, !tbaa !34
  %6 = icmp eq ptr %5, null
  br i1 %6, label %7, label %8

7:                                                ; preds = %0
  store ptr null, ptr %1, align 8
  store i32 1, ptr %3, align 4
  br label %22

8:                                                ; preds = %0
  %9 = load ptr, ptr %2, align 8, !tbaa !34
  %10 = getelementptr inbounds nuw %struct.OnigCaptureTreeNodeStruct, ptr %9, i32 0, i32 5
  store ptr null, ptr %10, align 8, !tbaa !40
  %11 = load ptr, ptr %2, align 8, !tbaa !34
  %12 = getelementptr inbounds nuw %struct.OnigCaptureTreeNodeStruct, ptr %11, i32 0, i32 3
  store i32 0, ptr %12, align 4, !tbaa !219
  %13 = load ptr, ptr %2, align 8, !tbaa !34
  %14 = getelementptr inbounds nuw %struct.OnigCaptureTreeNodeStruct, ptr %13, i32 0, i32 4
  store i32 0, ptr %14, align 8, !tbaa !39
  %15 = load ptr, ptr %2, align 8, !tbaa !34
  %16 = getelementptr inbounds nuw %struct.OnigCaptureTreeNodeStruct, ptr %15, i32 0, i32 0
  store i32 -1, ptr %16, align 8, !tbaa !125
  %17 = load ptr, ptr %2, align 8, !tbaa !34
  %18 = getelementptr inbounds nuw %struct.OnigCaptureTreeNodeStruct, ptr %17, i32 0, i32 1
  store i32 -1, ptr %18, align 4, !tbaa !35
  %19 = load ptr, ptr %2, align 8, !tbaa !34
  %20 = getelementptr inbounds nuw %struct.OnigCaptureTreeNodeStruct, ptr %19, i32 0, i32 2
  store i32 -1, ptr %20, align 8, !tbaa !38
  %21 = load ptr, ptr %2, align 8, !tbaa !34
  store ptr %21, ptr %1, align 8
  store i32 1, ptr %3, align 4
  br label %22

22:                                               ; preds = %8, %7
  call void @llvm.lifetime.end.p0(i64 8, ptr %2) #9
  %23 = load ptr, ptr %1, align 8
  ret ptr %23
}

; Function Attrs: nounwind uwtable
define internal i32 @make_capture_history_tree(ptr noundef %0, ptr noundef %1, ptr noundef %2, ptr noundef %3, ptr noundef %4) #0 {
  %6 = alloca i32, align 4
  %7 = alloca ptr, align 8
  %8 = alloca ptr, align 8
  %9 = alloca ptr, align 8
  %10 = alloca ptr, align 8
  %11 = alloca ptr, align 8
  %12 = alloca i32, align 4
  %13 = alloca i32, align 4
  %14 = alloca ptr, align 8
  %15 = alloca ptr, align 8
  %16 = alloca i32, align 4
  store ptr %0, ptr %7, align 8, !tbaa !34
  store ptr %1, ptr %8, align 8, !tbaa !222
  store ptr %2, ptr %9, align 8, !tbaa !115
  store ptr %3, ptr %10, align 8, !tbaa !60
  store ptr %4, ptr %11, align 8, !tbaa !57
  call void @llvm.lifetime.start.p0(i64 4, ptr %12) #9
  call void @llvm.lifetime.start.p0(i64 4, ptr %13) #9
  call void @llvm.lifetime.start.p0(i64 8, ptr %14) #9
  call void @llvm.lifetime.start.p0(i64 8, ptr %15) #9
  %17 = load ptr, ptr %8, align 8, !tbaa !222
  %18 = load ptr, ptr %17, align 8, !tbaa !115
  store ptr %18, ptr %15, align 8, !tbaa !115
  br label %19

19:                                               ; preds = %137, %5
  %20 = load ptr, ptr %15, align 8, !tbaa !115
  %21 = load ptr, ptr %9, align 8, !tbaa !115
  %22 = icmp ult ptr %20, %21
  br i1 %22, label %23, label %140

23:                                               ; preds = %19
  %24 = load ptr, ptr %15, align 8, !tbaa !115
  %25 = getelementptr inbounds nuw %struct._StackType, ptr %24, i32 0, i32 0
  %26 = load i32, ptr %25, align 8, !tbaa !118
  %27 = icmp eq i32 %26, 16
  br i1 %27, label %28, label %108

28:                                               ; preds = %23
  %29 = load ptr, ptr %15, align 8, !tbaa !115
  %30 = getelementptr inbounds nuw %struct._StackType, ptr %29, i32 0, i32 1
  %31 = load i32, ptr %30, align 4, !tbaa !137
  store i32 %31, ptr %12, align 4, !tbaa !9
  %32 = load i32, ptr %12, align 4, !tbaa !9
  %33 = icmp sle i32 %32, 31
  br i1 %33, label %34, label %107

34:                                               ; preds = %28
  %35 = load i32, ptr %12, align 4, !tbaa !9
  %36 = icmp slt i32 %35, 32
  br i1 %36, label %37, label %44

37:                                               ; preds = %34
  %38 = load ptr, ptr %11, align 8, !tbaa !57
  %39 = getelementptr inbounds nuw %struct.re_pattern_buffer, ptr %38, i32 0, i32 11
  %40 = load i32, ptr %39, align 8, !tbaa !124
  %41 = load i32, ptr %12, align 4, !tbaa !9
  %42 = shl i32 1, %41
  %43 = and i32 %40, %42
  br label %49

44:                                               ; preds = %34
  %45 = load ptr, ptr %11, align 8, !tbaa !57
  %46 = getelementptr inbounds nuw %struct.re_pattern_buffer, ptr %45, i32 0, i32 11
  %47 = load i32, ptr %46, align 8, !tbaa !124
  %48 = and i32 %47, 1
  br label %49

49:                                               ; preds = %44, %37
  %50 = phi i32 [ %43, %37 ], [ %48, %44 ]
  %51 = icmp ne i32 %50, 0
  br i1 %51, label %52, label %107

52:                                               ; preds = %49
  %53 = call ptr @history_node_new()
  store ptr %53, ptr %14, align 8, !tbaa !34
  %54 = load ptr, ptr %14, align 8, !tbaa !34
  %55 = icmp eq ptr %54, null
  br i1 %55, label %56, label %57

56:                                               ; preds = %52
  store i32 -5, ptr %6, align 4
  store i32 1, ptr %16, align 4
  br label %141

57:                                               ; preds = %52
  %58 = load i32, ptr %12, align 4, !tbaa !9
  %59 = load ptr, ptr %14, align 8, !tbaa !34
  %60 = getelementptr inbounds nuw %struct.OnigCaptureTreeNodeStruct, ptr %59, i32 0, i32 0
  store i32 %58, ptr %60, align 8, !tbaa !125
  %61 = load ptr, ptr %15, align 8, !tbaa !115
  %62 = getelementptr inbounds nuw %struct._StackType, ptr %61, i32 0, i32 2
  %63 = getelementptr inbounds nuw %struct.anon.6, ptr %62, i32 0, i32 0
  %64 = load ptr, ptr %63, align 8, !tbaa !59
  %65 = load ptr, ptr %10, align 8, !tbaa !60
  %66 = ptrtoint ptr %64 to i64
  %67 = ptrtoint ptr %65 to i64
  %68 = sub i64 %66, %67
  %69 = trunc i64 %68 to i32
  %70 = load ptr, ptr %14, align 8, !tbaa !34
  %71 = getelementptr inbounds nuw %struct.OnigCaptureTreeNodeStruct, ptr %70, i32 0, i32 1
  store i32 %69, ptr %71, align 4, !tbaa !35
  %72 = load ptr, ptr %7, align 8, !tbaa !34
  %73 = load ptr, ptr %14, align 8, !tbaa !34
  %74 = call i32 @history_tree_add_child(ptr noundef %72, ptr noundef %73)
  store i32 %74, ptr %13, align 4, !tbaa !9
  %75 = load i32, ptr %13, align 4, !tbaa !9
  %76 = icmp ne i32 %75, 0
  br i1 %76, label %77, label %79

77:                                               ; preds = %57
  %78 = load i32, ptr %13, align 4, !tbaa !9
  store i32 %78, ptr %6, align 4
  store i32 1, ptr %16, align 4
  br label %141

79:                                               ; preds = %57
  %80 = load ptr, ptr %15, align 8, !tbaa !115
  %81 = getelementptr inbounds %struct._StackType, ptr %80, i64 1
  %82 = load ptr, ptr %8, align 8, !tbaa !222
  store ptr %81, ptr %82, align 8, !tbaa !115
  %83 = load ptr, ptr %14, align 8, !tbaa !34
  %84 = load ptr, ptr %8, align 8, !tbaa !222
  %85 = load ptr, ptr %9, align 8, !tbaa !115
  %86 = load ptr, ptr %10, align 8, !tbaa !60
  %87 = load ptr, ptr %11, align 8, !tbaa !57
  %88 = call i32 @make_capture_history_tree(ptr noundef %83, ptr noundef %84, ptr noundef %85, ptr noundef %86, ptr noundef %87)
  store i32 %88, ptr %13, align 4, !tbaa !9
  %89 = load i32, ptr %13, align 4, !tbaa !9
  %90 = icmp ne i32 %89, 0
  br i1 %90, label %91, label %93

91:                                               ; preds = %79
  %92 = load i32, ptr %13, align 4, !tbaa !9
  store i32 %92, ptr %6, align 4
  store i32 1, ptr %16, align 4
  br label %141

93:                                               ; preds = %79
  %94 = load ptr, ptr %8, align 8, !tbaa !222
  %95 = load ptr, ptr %94, align 8, !tbaa !115
  store ptr %95, ptr %15, align 8, !tbaa !115
  %96 = load ptr, ptr %15, align 8, !tbaa !115
  %97 = getelementptr inbounds nuw %struct._StackType, ptr %96, i32 0, i32 2
  %98 = getelementptr inbounds nuw %struct.anon.6, ptr %97, i32 0, i32 0
  %99 = load ptr, ptr %98, align 8, !tbaa !59
  %100 = load ptr, ptr %10, align 8, !tbaa !60
  %101 = ptrtoint ptr %99 to i64
  %102 = ptrtoint ptr %100 to i64
  %103 = sub i64 %101, %102
  %104 = trunc i64 %103 to i32
  %105 = load ptr, ptr %14, align 8, !tbaa !34
  %106 = getelementptr inbounds nuw %struct.OnigCaptureTreeNodeStruct, ptr %105, i32 0, i32 2
  store i32 %104, ptr %106, align 8, !tbaa !38
  br label %107

107:                                              ; preds = %93, %49, %28
  br label %137

108:                                              ; preds = %23
  %109 = load ptr, ptr %15, align 8, !tbaa !115
  %110 = getelementptr inbounds nuw %struct._StackType, ptr %109, i32 0, i32 0
  %111 = load i32, ptr %110, align 8, !tbaa !118
  %112 = icmp eq i32 %111, 32816
  br i1 %112, label %113, label %136

113:                                              ; preds = %108
  %114 = load ptr, ptr %15, align 8, !tbaa !115
  %115 = getelementptr inbounds nuw %struct._StackType, ptr %114, i32 0, i32 1
  %116 = load i32, ptr %115, align 4, !tbaa !137
  %117 = load ptr, ptr %7, align 8, !tbaa !34
  %118 = getelementptr inbounds nuw %struct.OnigCaptureTreeNodeStruct, ptr %117, i32 0, i32 0
  %119 = load i32, ptr %118, align 8, !tbaa !125
  %120 = icmp eq i32 %116, %119
  br i1 %120, label %121, label %135

121:                                              ; preds = %113
  %122 = load ptr, ptr %15, align 8, !tbaa !115
  %123 = getelementptr inbounds nuw %struct._StackType, ptr %122, i32 0, i32 2
  %124 = getelementptr inbounds nuw %struct.anon.6, ptr %123, i32 0, i32 0
  %125 = load ptr, ptr %124, align 8, !tbaa !59
  %126 = load ptr, ptr %10, align 8, !tbaa !60
  %127 = ptrtoint ptr %125 to i64
  %128 = ptrtoint ptr %126 to i64
  %129 = sub i64 %127, %128
  %130 = trunc i64 %129 to i32
  %131 = load ptr, ptr %7, align 8, !tbaa !34
  %132 = getelementptr inbounds nuw %struct.OnigCaptureTreeNodeStruct, ptr %131, i32 0, i32 2
  store i32 %130, ptr %132, align 8, !tbaa !38
  %133 = load ptr, ptr %15, align 8, !tbaa !115
  %134 = load ptr, ptr %8, align 8, !tbaa !222
  store ptr %133, ptr %134, align 8, !tbaa !115
  store i32 0, ptr %6, align 4
  store i32 1, ptr %16, align 4
  br label %141

135:                                              ; preds = %113
  br label %136

136:                                              ; preds = %135, %108
  br label %137

137:                                              ; preds = %136, %107
  %138 = load ptr, ptr %15, align 8, !tbaa !115
  %139 = getelementptr inbounds nuw %struct._StackType, ptr %138, i32 1
  store ptr %139, ptr %15, align 8, !tbaa !115
  br label %19, !llvm.loop !224

140:                                              ; preds = %19
  store i32 1, ptr %6, align 4
  store i32 1, ptr %16, align 4
  br label %141

141:                                              ; preds = %140, %121, %91, %77, %56
  call void @llvm.lifetime.end.p0(i64 8, ptr %15) #9
  call void @llvm.lifetime.end.p0(i64 8, ptr %14) #9
  call void @llvm.lifetime.end.p0(i64 4, ptr %13) #9
  call void @llvm.lifetime.end.p0(i64 4, ptr %12) #9
  %142 = load i32, ptr %6, align 4
  ret i32 %142
}